/*
 * Intel ACPI Component Architecture
 * AML/ASL+ Disassembler version 20160729-64
 * Copyright (c) 2000 - 2016 Intel Corporation
 * 
 * Disassembly of /Users/samslesarev/Desktop/DarwinDumper_3.0.3_12.08_17.31.12_MacBookPro13,3_Apple_X64_Sierra_16F73_samslesarev/ACPI Tables/AML/MCFG.aml, Sat Aug 12 17:31:30 2017
 *
 * ACPI Data Table [MCFG]
 *
 * Format: [HexOffset DecimalOffset ByteLength]  FieldName : FieldValue
 */

[000h 0000   4]                    Signature : "MCFG"    [Memory Mapped Configuration table]
[004h 0004   4]                 Table Length : 0000003C
[008h 0008   1]                     Revision : 01
[009h 0009   1]                     Checksum : F4
[00Ah 0010   6]                       Oem ID : "APPLE "
[010h 0016   8]                 Oem Table ID : "Apple00"
[018h 0024   4]                 Oem Revision : 00000001
[01Ch 0028   4]              Asl Compiler ID : "Loki"
[020h 0032   4]        Asl Compiler Revision : 0000005F

[024h 0036   8]                     Reserved : 0000000000000000

[02Ch 0044   8]                 Base Address : 00000000E0000000
[034h 0052   2]         Segment Group Number : 0000
[036h 0054   1]             Start Bus Number : 00
[037h 0055   1]               End Bus Number : FF
[038h 0056   4]                     Reserved : 00000000

Raw Table Data: Length 60 (0x3C)

  0000: 4D 43 46 47 3C 00 00 00 01 F4 41 50 50 4C 45 20  // MCFG<.....APPLE 
  0010: 41 70 70 6C 65 30 30 00 01 00 00 00 4C 6F 6B 69  // Apple00.....Loki
  0020: 5F 00 00 00 00 00 00 00 00 00 00 00 00 00 00 E0  // _...............
  0030: 00 00 00 00 00 00 00 FF 00 00 00 00              // ............
