/*
 * Intel ACPI Component Architecture
 * AML Disassembler version 20130823-32 [Sep 16 2013]
 * Copyright (c) 2000 - 2013 Intel Corporation
 * 
 * Disassembly of /Users/alex/Downloads/DarwinDumper_v2.9.9.2/DarwinDumperReports/000_2016-04-06_20-01-16_MacBook8,1/DarwinDumper_2.9.9.2_Apple_X64_Cap_alex/ACPI Tables/AML/RSDT.aml, Wed Apr  6 20:01:55 2016
 *
 * ACPI Data Table [XSDT]
 *
 * Format: [HexOffset DecimalOffset ByteLength]  FieldName : FieldValue
 */

[000h 0000   4]                    Signature : "XSDT"    [Extended System Description Table]
[004h 0004   4]                 Table Length : 00000094
[008h 0008   1]                     Revision : 01
[009h 0009   1]                     Checksum : 1F
[00Ah 0010   6]                       Oem ID : "APPLE "
[010h 0016   8]                 Oem Table ID : "Apple00"
[018h 0024   4]                 Oem Revision : 00000000
[01Ch 0028   4]              Asl Compiler ID : "    "
[020h 0032   4]        Asl Compiler Revision : 01000013

[024h 0036   8]       ACPI Table Address   0 : 000000008AD8C000
[02Ch 0044   8]       ACPI Table Address   1 : 000000008AD8B000
[034h 0052   8]       ACPI Table Address   2 : 000000008AD8A000
[03Ch 0060   8]       ACPI Table Address   3 : 000000008AD88000
[044h 0068   8]       ACPI Table Address   4 : 000000008AD87000
[04Ch 0076   8]       ACPI Table Address   5 : 000000008AD7D000
[054h 0084   8]       ACPI Table Address   6 : 000000008AD7C000
[05Ch 0092   8]       ACPI Table Address   7 : 000000008AD7B000
[064h 0100   8]       ACPI Table Address   8 : 000000008AD77000
[06Ch 0108   8]       ACPI Table Address   9 : 000000008AD76000
[074h 0116   8]       ACPI Table Address  10 : 000000008AD6F000
[07Ch 0124   8]       ACPI Table Address  11 : 000000008AD6E000
[084h 0132   8]       ACPI Table Address  12 : 000000008AD89000
[08Ch 0140   8]       ACPI Table Address  13 : 000000008AD6D000

Raw Table Data: Length 148 (0x94)

  0000: 58 53 44 54 94 00 00 00 01 1F 41 50 50 4C 45 20  XSDT......APPLE 
  0010: 41 70 70 6C 65 30 30 00 00 00 00 00 20 20 20 20  Apple00.....    
  0020: 13 00 00 01 00 C0 D8 8A 00 00 00 00 00 B0 D8 8A  ................
  0030: 00 00 00 00 00 A0 D8 8A 00 00 00 00 00 80 D8 8A  ................
  0040: 00 00 00 00 00 70 D8 8A 00 00 00 00 00 D0 D7 8A  .....p..........
  0050: 00 00 00 00 00 C0 D7 8A 00 00 00 00 00 B0 D7 8A  ................
  0060: 00 00 00 00 00 70 D7 8A 00 00 00 00 00 60 D7 8A  .....p.......`..
  0070: 00 00 00 00 00 F0 D6 8A 00 00 00 00 00 E0 D6 8A  ................
  0080: 00 00 00 00 00 90 D8 8A 00 00 00 00 00 D0 D6 8A  ................
  0090: 00 00 00 00                                      ....
