/*
 * Intel ACPI Component Architecture
 * AML Disassembler version 20130823-32 [Sep 16 2013]
 * Copyright (c) 2000 - 2013 Intel Corporation
 * 
 * Disassembly of /Volumes/Recovery HD/Distr/DarwinDumperReports/000_2015-08-02_22-18-04_MacBookPro11,2/DarwinDumper_2.9.8_Apple_X64_Mav_alinamustafina/ACPI Tables/AML/MCFG.aml, Sun Aug  2 22:18:22 2015
 *
 * ACPI Data Table [MCFG]
 *
 * Format: [HexOffset DecimalOffset ByteLength]  FieldName : FieldValue
 */

[000h 0000   4]                    Signature : "MCFG"    [Memory Mapped Configuration table]
[004h 0004   4]                 Table Length : 0000003C
[008h 0008   1]                     Revision : 01
[009h 0009   1]                     Checksum : 58
[00Ah 0010   6]                       Oem ID : "APPLE "
[010h 0016   8]                 Oem Table ID : "Apple00"
[018h 0024   4]                 Oem Revision : 00000001
[01Ch 0028   4]              Asl Compiler ID : "Loki"
[020h 0032   4]        Asl Compiler Revision : 0000005F

[024h 0036   8]                     Reserved : 0000000000000000

[02Ch 0044   8]                 Base Address : 00000000E0000000
[034h 0052   2]         Segment Group Number : 0000
[036h 0054   1]             Start Bus Number : 00
[037h 0055   1]               End Bus Number : 9B
[038h 0056   4]                     Reserved : 00000000

Raw Table Data: Length 60 (0x3C)

  0000: 4D 43 46 47 3C 00 00 00 01 58 41 50 50 4C 45 20  MCFG<....XAPPLE 
  0010: 41 70 70 6C 65 30 30 00 01 00 00 00 4C 6F 6B 69  Apple00.....Loki
  0020: 5F 00 00 00 00 00 00 00 00 00 00 00 00 00 00 E0  _...............
  0030: 00 00 00 00 00 00 00 9B 00 00 00 00              ............
