/*
 * Intel ACPI Component Architecture
 * AML/ASL+ Disassembler version 20160729-64
 * Copyright (c) 2000 - 2016 Intel Corporation
 * 
 * Disassembly of /Volumes/USB/DarwinDumper_3.0.4_30.12_15.30.40_iMacPro1,1_Apple_X64_High Sierra_17C2120_apple/ACPI Tables/AML/RSDT.aml, Sat Dec 30 15:30:58 2017
 *
 * ACPI Data Table [XSDT]
 *
 * Format: [HexOffset DecimalOffset ByteLength]  FieldName : FieldValue
 */

[000h 0000   4]                    Signature : "XSDT"    [Extended System Description Table]
[004h 0004   4]                 Table Length : 000000D4
[008h 0008   1]                     Revision : 01
[009h 0009   1]                     Checksum : 3E
[00Ah 0010   6]                       Oem ID : "APPLE "
[010h 0016   8]                 Oem Table ID : "Apple00"
[018h 0024   4]                 Oem Revision : 00000000
[01Ch 0028   4]              Asl Compiler ID : "    "
[020h 0032   4]        Asl Compiler Revision : 01000013

[024h 0036   8]       ACPI Table Address   0 : 000000004FFF7000
[02Ch 0044   8]       ACPI Table Address   1 : 000000004FEF8000
[034h 0052   8]       ACPI Table Address   2 : 000000004FFFA000
[03Ch 0060   8]       ACPI Table Address   3 : 000000004FFF9000
[044h 0068   8]       ACPI Table Address   4 : 000000004FFF6000
[04Ch 0076   8]       ACPI Table Address   5 : 000000004FFF5000
[054h 0084   8]       ACPI Table Address   6 : 000000004FFF4000
[05Ch 0092   8]       ACPI Table Address   7 : 000000004FFF3000
[064h 0100   8]       ACPI Table Address   8 : 000000004FFCE000
[06Ch 0108   8]       ACPI Table Address   9 : 000000004FFC7000
[074h 0116   8]       ACPI Table Address  10 : 000000004FFC6000
[07Ch 0124   8]       ACPI Table Address  11 : 000000004FFC5000
[084h 0132   8]       ACPI Table Address  12 : 000000004FFC4000
[08Ch 0140   8]       ACPI Table Address  13 : 000000004FFC3000
[094h 0148   8]       ACPI Table Address  14 : 000000004FFC0000
[09Ch 0156   8]       ACPI Table Address  15 : 000000004FFBF000
[0A4h 0164   8]       ACPI Table Address  16 : 000000004FFBE000
[0ACh 0172   8]       ACPI Table Address  17 : 000000004FFB4000
[0B4h 0180   8]       ACPI Table Address  18 : 000000004FFB3000
[0BCh 0188   8]       ACPI Table Address  19 : 000000004FFB2000
[0C4h 0196   8]       ACPI Table Address  20 : 000000004FFB1000
[0CCh 0204   8]       ACPI Table Address  21 : 000000004FFAA000

Raw Table Data: Length 212 (0xD4)

  0000: 58 53 44 54 D4 00 00 00 01 3E 41 50 50 4C 45 20  // XSDT.....>APPLE 
  0010: 41 70 70 6C 65 30 30 00 00 00 00 00 20 20 20 20  // Apple00.....    
  0020: 13 00 00 01 00 70 FF 4F 00 00 00 00 00 80 EF 4F  // .....p.O.......O
  0030: 00 00 00 00 00 A0 FF 4F 00 00 00 00 00 90 FF 4F  // .......O.......O
  0040: 00 00 00 00 00 60 FF 4F 00 00 00 00 00 50 FF 4F  // .....`.O.....P.O
  0050: 00 00 00 00 00 40 FF 4F 00 00 00 00 00 30 FF 4F  // .....@.O.....0.O
  0060: 00 00 00 00 00 E0 FC 4F 00 00 00 00 00 70 FC 4F  // .......O.....p.O
  0070: 00 00 00 00 00 60 FC 4F 00 00 00 00 00 50 FC 4F  // .....`.O.....P.O
  0080: 00 00 00 00 00 40 FC 4F 00 00 00 00 00 30 FC 4F  // .....@.O.....0.O
  0090: 00 00 00 00 00 00 FC 4F 00 00 00 00 00 F0 FB 4F  // .......O.......O
  00A0: 00 00 00 00 00 E0 FB 4F 00 00 00 00 00 40 FB 4F  // .......O.....@.O
  00B0: 00 00 00 00 00 30 FB 4F 00 00 00 00 00 20 FB 4F  // .....0.O..... .O
  00C0: 00 00 00 00 00 10 FB 4F 00 00 00 00 00 A0 FA 4F  // .......O.......O
  00D0: 00 00 00 00                                      // ....
