/*
 * Intel ACPI Component Architecture
 * AML Disassembler version 20120320-32 [Sep  3 2012]
 * Copyright (c) 2000 - 2012 Intel Corporation
 * 
 * Disassembly of /Users/admin/Desktop/DarwinDumperReports/000_2013-04-13_20-58-06_MacBookPro10,1/DarwinDumper_2.7.0_Apple_X64_Lion_admin/ACPIDump/AML/SBST.aml, Sat Apr 13 20:58:17 2013
 *
 * ACPI Data Table [SBST]
 *
 * Format: [HexOffset DecimalOffset ByteLength]  FieldName : FieldValue
 */

[000h 0000   4]                    Signature : "SBST"    [Smart Battery Specification Table]
[004h 0004   4]                 Table Length : 00000030
[008h 0008   1]                     Revision : 01
[009h 0009   1]                     Checksum : 84
[00Ah 0010   6]                       Oem ID : "APPLE "
[010h 0016   8]                 Oem Table ID : "Apple00"
[018h 0024   4]                 Oem Revision : 00000001
[01Ch 0028   4]              Asl Compiler ID : "Loki"
[020h 0032   4]        Asl Compiler Revision : 0000005F

[024h 0036   4]                Warning Level : 0000001E
[028h 0040   4]                    Low Level : 00000014
[02Ch 0044   4]               Critical Level : 0000000A

Raw Table Data: Length 48 (0x30)

  0000: 53 42 53 54 30 00 00 00 01 84 41 50 50 4C 45 20  SBST0.....APPLE 
  0010: 41 70 70 6C 65 30 30 00 01 00 00 00 4C 6F 6B 69  Apple00.....Loki
  0020: 5F 00 00 00 1E 00 00 00 14 00 00 00 0A 00 00 00  _...............
