/*
 * Intel ACPI Component Architecture
 * AML Disassembler version 20130823-32 [Sep 16 2013]
 * Copyright (c) 2000 - 2013 Intel Corporation
 * 
 * Disassembly of /Applications/DarwinDumper_v2.8.8/DarwinDumperReports/000_2014-05-26_01-25-55_iMac14,2/DarwinDumper_2.8.8_Apple_X64_Mav_plievasabina/ACPI Tables/AML/RSDT.aml, Mon May 26 01:26:33 2014
 *
 * ACPI Data Table [XSDT]
 *
 * Format: [HexOffset DecimalOffset ByteLength]  FieldName : FieldValue
 */

[000h 0000   4]                    Signature : "XSDT"    [Extended System Description Table]
[004h 0004   4]                 Table Length : 0000009C
[008h 0008   1]                     Revision : 01
[009h 0009   1]                     Checksum : 59
[00Ah 0010   6]                       Oem ID : "APPLE "
[010h 0016   8]                 Oem Table ID : "Apple00"
[018h 0024   4]                 Oem Revision : 00000000
[01Ch 0028   4]              Asl Compiler ID : "    "
[020h 0032   4]        Asl Compiler Revision : 01000013

[024h 0036   8]       ACPI Table Address   0 : 000000008CD8C000
[02Ch 0044   8]       ACPI Table Address   1 : 000000008CD8B000
[034h 0052   8]       ACPI Table Address   2 : 000000008CD8A000
[03Ch 0060   8]       ACPI Table Address   3 : 000000008CD88000
[044h 0068   8]       ACPI Table Address   4 : 000000008CD87000
[04Ch 0076   8]       ACPI Table Address   5 : 000000008CD7F000
[054h 0084   8]       ACPI Table Address   6 : 000000008CD7E000
[05Ch 0092   8]       ACPI Table Address   7 : 000000008CD7A000
[064h 0100   8]       ACPI Table Address   8 : 000000008CD79000
[06Ch 0108   8]       ACPI Table Address   9 : 000000008CD75000
[074h 0116   8]       ACPI Table Address  10 : 000000008CD64000
[07Ch 0124   8]       ACPI Table Address  11 : 000000008CD63000
[084h 0132   8]       ACPI Table Address  12 : 000000008CD62000
[08Ch 0140   8]       ACPI Table Address  13 : 000000008CD89000
[094h 0148   8]       ACPI Table Address  14 : 000000008CD61000

Raw Table Data: Length 156 (0x9C)

  0000: 58 53 44 54 9C 00 00 00 01 59 41 50 50 4C 45 20  XSDT.....YAPPLE 
  0010: 41 70 70 6C 65 30 30 00 00 00 00 00 20 20 20 20  Apple00.....    
  0020: 13 00 00 01 00 C0 D8 8C 00 00 00 00 00 B0 D8 8C  ................
  0030: 00 00 00 00 00 A0 D8 8C 00 00 00 00 00 80 D8 8C  ................
  0040: 00 00 00 00 00 70 D8 8C 00 00 00 00 00 F0 D7 8C  .....p..........
  0050: 00 00 00 00 00 E0 D7 8C 00 00 00 00 00 A0 D7 8C  ................
  0060: 00 00 00 00 00 90 D7 8C 00 00 00 00 00 50 D7 8C  .............P..
  0070: 00 00 00 00 00 40 D6 8C 00 00 00 00 00 30 D6 8C  .....@.......0..
  0080: 00 00 00 00 00 20 D6 8C 00 00 00 00 00 90 D8 8C  ..... ..........
  0090: 00 00 00 00 00 10 D6 8C 00 00 00 00              ............
